target datalayout = "e-m:e-p270:32:32-p271:32:32-p272:64:64-i64:64-i128:128-f80:128-n8:16:32:64-S128"
target triple = "x86_64-pc-linux-gnu"

%class.Mutex = type { ptr, %class.PlatformMonitor, ptr }
%class.PlatformMonitor = type { %class.PlatformMutex, %union.pthread_cond_t }
%class.PlatformMutex = type { %union.pthread_mutex_t }
%union.pthread_mutex_t = type { %struct.__pthread_mutex_s }
%struct.__pthread_mutex_s = type { i32, i32, i32, i32, i32, i16, i16, %struct.__pthread_internal_list }
%struct.__pthread_internal_list = type { ptr, ptr }
%union.pthread_cond_t = type { %struct.__pthread_cond_s }
%struct.__pthread_cond_s = type { %union.__atomic_wide_counter, %union.__atomic_wide_counter, [2 x i32], [2 x i32], i32, i32, [2 x i32] }
%union.__atomic_wide_counter = type { i64 }
%"struct.Atomic::LoadImpl" = type { i8 }
%"struct.Atomic::PlatformLoad" = type { i8 }

@.str.98 = private unnamed_addr constant [47 x i8] c"VM Mutex/Monitor currently owned by a thread: \00", align 1
@_ZL10_num_mutex = internal global i32 0, align 4
@_ZL12_mutex_array = internal global [128 x ptr] zeroinitializer, align 16
@.str.99 = private unnamed_addr constant [22 x i8] c" ([mutex/lock_event])\00", align 1
@.str.100 = private unnamed_addr constant [5 x i8] c"None\00", align 1

; Function Attrs: mustprogress nounwind uwtable
define linkonce_odr hidden noundef ptr @_ZNK6Atomic12PlatformLoadILm8EEclIP6ThreadEET_PVKS5_(ptr noundef nonnull align 1 dereferenceable(1) %0, ptr noundef %1) #1 comdat align 2 {
  %3 = alloca ptr, align 8
  %4 = alloca ptr, align 8
  store ptr %0, ptr %3, align 8
  store ptr %1, ptr %4, align 8
  %5 = load ptr, ptr %4, align 8
  %6 = load volatile ptr, ptr %5, align 8
  ret ptr %6
}

; Function Attrs: mustprogress nounwind uwtable
define linkonce_odr hidden noundef ptr @_ZNK6Atomic8LoadImplIP6ThreadNS_12PlatformLoadILm8EEEvEclEPVKS2_(ptr noundef nonnull align 1 dereferenceable(1) %0, ptr noundef %1) #1 comdat align 2 {
  %3 = alloca ptr, align 8
  %4 = alloca ptr, align 8
  %5 = alloca %"struct.Atomic::PlatformLoad", align 1
  store ptr %0, ptr %3, align 8
  store ptr %1, ptr %4, align 8
  %6 = load ptr, ptr %4, align 8
  %7 = call noundef ptr @_ZNK6Atomic12PlatformLoadILm8EEclIP6ThreadEET_PVKS5_(ptr noundef nonnull align 1 dereferenceable(1) %5, ptr noundef %6)
  ret ptr %7
}

; Function Attrs: mustprogress nounwind uwtable
define linkonce_odr hidden noundef ptr @_ZN6Atomic4loadIP6ThreadEET_PVKS3_(ptr noundef %0) #1 comdat align 2 {
  %2 = alloca ptr, align 8
  %3 = alloca %"struct.Atomic::LoadImpl", align 1
  store ptr %0, ptr %2, align 8
  %4 = load ptr, ptr %2, align 8
  %5 = call noundef ptr @_ZNK6Atomic8LoadImplIP6ThreadNS_12PlatformLoadILm8EEEvEclEPVKS2_(ptr noundef nonnull align 1 dereferenceable(1) %3, ptr noundef %4)
  ret ptr %5
}

; Function Attrs: mustprogress nounwind uwtable
define linkonce_odr hidden noundef ptr @_ZNK5Mutex5ownerEv(ptr noundef nonnull align 8 dereferenceable(104) %0) #1 comdat align 2 {
  %2 = alloca ptr, align 8
  store ptr %0, ptr %2, align 8
  %3 = load ptr, ptr %2, align 8
  %4 = getelementptr inbounds %class.Mutex, ptr %3, i32 0, i32 0
  %5 = call noundef ptr @_ZN6Atomic4loadIP6ThreadEET_PVKS3_(ptr noundef %4)
  ret ptr %5
}

; Function Attrs: mustprogress nounwind uwtable
define hidden void @_Z26print_owned_locks_on_errorP12outputStream(ptr noundef %0) #1 {
  %2 = alloca ptr, align 8
  %3 = alloca i8, align 1
  %4 = alloca i32, align 4
  store ptr %0, ptr %2, align 8
  %5 = load ptr, ptr %2, align 8
  call void (ptr, ptr, ...) @_ZN12outputStream5printEPKcz(ptr noundef nonnull align 8 dereferenceable(56) %5, ptr noundef @.str.98)
  store i8 1, ptr %3, align 1
  store i32 0, ptr %4, align 4
  br label %6

6:                                                ; preds = %30, %1
  %7 = load i32, ptr %4, align 4
  %8 = load i32, ptr @_ZL10_num_mutex, align 4
  %9 = icmp slt i32 %7, %8
  br i1 %9, label %10, label %33

10:                                               ; preds = %6
  %11 = load i32, ptr %4, align 4
  %12 = sext i32 %11 to i64
  %13 = getelementptr inbounds [128 x ptr], ptr @_ZL12_mutex_array, i64 0, i64 %12
  %14 = load ptr, ptr %13, align 8
  %15 = call noundef ptr @_ZNK5Mutex5ownerEv(ptr noundef nonnull align 8 dereferenceable(104) %14)
  %16 = icmp ne ptr %15, null
  br i1 %16, label %17, label %29

17:                                               ; preds = %10
  %18 = load i8, ptr %3, align 1
  %19 = trunc i8 %18 to i1
  br i1 %19, label %20, label %22

20:                                               ; preds = %17
  %21 = load ptr, ptr %2, align 8
  call void (ptr, ptr, ...) @_ZN12outputStream8print_crEPKcz(ptr noundef nonnull align 8 dereferenceable(56) %21, ptr noundef @.str.99)
  store i8 0, ptr %3, align 1
  br label %22

22:                                               ; preds = %20, %17
  %23 = load i32, ptr %4, align 4
  %24 = sext i32 %23 to i64
  %25 = getelementptr inbounds [128 x ptr], ptr @_ZL12_mutex_array, i64 0, i64 %24
  %26 = load ptr, ptr %25, align 8
  %27 = load ptr, ptr %2, align 8
  call void @_ZNK5Mutex14print_on_errorEP12outputStream(ptr noundef nonnull align 8 dereferenceable(104) %26, ptr noundef %27)
  %28 = load ptr, ptr %2, align 8
  call void @_ZN12outputStream2crEv(ptr noundef nonnull align 8 dereferenceable(56) %28)
  br label %29

29:                                               ; preds = %22, %10
  br label %30

30:                                               ; preds = %29
  %31 = load i32, ptr %4, align 4
  %32 = add nsw i32 %31, 1
  store i32 %32, ptr %4, align 4
  br label %6, !llvm.loop !6

33:                                               ; preds = %6
  %34 = load i8, ptr %3, align 1
  %35 = trunc i8 %34 to i1
  br i1 %35, label %36, label %38

36:                                               ; preds = %33
  %37 = load ptr, ptr %2, align 8
  call void (ptr, ptr, ...) @_ZN12outputStream8print_crEPKcz(ptr noundef nonnull align 8 dereferenceable(56) %37, ptr noundef @.str.100)
  br label %38

38:                                               ; preds = %36, %33
  ret void
}