; Function Attrs: mustprogress nounwind uwtable
define hidden void @_Z26print_owned_locks_on_errorP12outputStream(ptr noundef nonnull %0) local_unnamed_addr #0 {
  tail call void (ptr, ptr, ...) @_ZN12outputStream5printEPKcz(ptr noundef nonnull align 8 dereferenceable(56) %0, ptr noundef nonnull @.str.98) #6
  %2 = load i32, ptr @_ZL10_num_mutex, align 4
  %3 = icmp sgt i32 %2, 0
  br i1 %3, label %.lr.ph, label %._crit_edge.thread

.lr.ph:                                           ; preds = %1, %13
  %4 = phi i32 [ %14, %13 ], [ %2, %1 ]
  %indvars.iv = phi i64 [ %indvars.iv.next, %13 ], [ 0, %1 ]
  %.01011 = phi i8 [ %.2, %13 ], [ 1, %1 ]
  %5 = getelementptr inbounds [128 x ptr], ptr @_ZL12_mutex_array, i64 0, i64 %indvars.iv
  %6 = load ptr, ptr %5, align 8
  %7 = load volatile ptr, ptr %6, align 8
  %.not = icmp eq ptr %7, null
  br i1 %.not, label %13, label %8

8:                                                ; preds = %.lr.ph
  %9 = trunc nuw i8 %.01011 to i1
  br i1 %9, label %10, label %11

10:                                               ; preds = %8
  tail call void (ptr, ptr, ...) @_ZN12outputStream8print_crEPKcz(ptr noundef nonnull align 8 dereferenceable(56) %0, ptr noundef nonnull @.str.99) #6
  %.pre = load ptr, ptr %5, align 8
  br label %11

11:                                               ; preds = %10, %8
  %12 = phi ptr [ %.pre, %10 ], [ %6, %8 ]
  %.1 = phi i8 [ 0, %10 ], [ %.01011, %8 ]
  tail call void @_ZNK5Mutex14print_on_errorEP12outputStream(ptr noundef nonnull align 8 dereferenceable(104) %12, ptr noundef nonnull %0) #6
  tail call void @_ZN12outputStream2crEv(ptr noundef nonnull align 8 dereferenceable(56) %0) #6
  %.pre13 = load i32, ptr @_ZL10_num_mutex, align 4
  br label %13

13:                                               ; preds = %.lr.ph, %11
  %14 = phi i32 [ %.pre13, %11 ], [ %4, %.lr.ph ]
  %.2 = phi i8 [ %.1, %11 ], [ %.01011, %.lr.ph ]
  %indvars.iv.next = add nuw nsw i64 %indvars.iv, 1
  %15 = sext i32 %14 to i64
  %16 = icmp slt i64 %indvars.iv.next, %15
  br i1 %16, label %.lr.ph, label %._crit_edge, !llvm.loop !6

._crit_edge:                                      ; preds = %13
  %17 = trunc nuw i8 %.2 to i1
  br i1 %17, label %._crit_edge.thread, label %18

._crit_edge.thread:                               ; preds = %1, %._crit_edge
  tail call void (ptr, ptr, ...) @_ZN12outputStream8print_crEPKcz(ptr noundef nonnull align 8 dereferenceable(56) %0, ptr noundef nonnull @.str.100) #6
  br label %18

18:                                               ; preds = %._crit_edge.thread, %._crit_edge
  ret void
}